(lp0
S'poi'
p1
aS'salary'
p2
aS'total_payments'
p3
aS'bonus'
p4
aS'total_stock_value'
p5
aS'fraction_to_poi'
p6
aS'exercised_stock_options'
p7
aS'deferred_income'
p8
aS'long_term_incentive'
p9
aS'combined_poi_communications'
p10
a.